target datalayout = "e-m:e-p270:32:32-p271:32:32-p272:64:64-i64:64-i128:128-f80:128-n8:16:32:64-S128"
target triple = "x86_64-pc-linux-gnu"

%struct._cms_curve_struct = type { ptr, i32, ptr, ptr, ptr, i32, ptr }
%struct.cmsCurveSegment = type { float, float, i32, [10 x double], i32, ptr }

; Function Attrs: nounwind uwtable
define hidden ptr @cmsGetToneCurveSegment(i32 noundef %0, ptr noundef %1) #0 {
  %3 = alloca ptr, align 8
  %4 = alloca i32, align 4
  %5 = alloca ptr, align 8
  store i32 %0, ptr %4, align 4
  store ptr %1, ptr %5, align 8
  %6 = load i32, ptr %4, align 4
  %7 = icmp slt i32 %6, 0
  br i1 %7, label %14, label %8

8:                                                ; preds = %2
  %9 = load i32, ptr %4, align 4
  %10 = load ptr, ptr %5, align 8
  %11 = getelementptr inbounds %struct._cms_curve_struct, ptr %10, i32 0, i32 1
  %12 = load i32, ptr %11, align 8
  %13 = icmp sge i32 %9, %12
  br i1 %13, label %14, label %15

14:                                               ; preds = %8, %2
  store ptr null, ptr %3, align 8
  br label %22

15:                                               ; preds = %8
  %16 = load ptr, ptr %5, align 8
  %17 = getelementptr inbounds %struct._cms_curve_struct, ptr %16, i32 0, i32 2
  %18 = load ptr, ptr %17, align 8
  %19 = load i32, ptr %4, align 4
  %20 = sext i32 %19 to i64
  %21 = getelementptr inbounds %struct.cmsCurveSegment, ptr %18, i64 %20
  store ptr %21, ptr %3, align 8
  br label %22

22:                                               ; preds = %15, %14
  %23 = load ptr, ptr %3, align 8
  ret ptr %23
}