; Function Attrs: mustprogress nofree norecurse nosync nounwind willreturn memory(argmem: read) uwtable
define hidden ptr @cmsGetToneCurveSegment(i32 noundef %0, ptr nocapture noundef readonly %1) local_unnamed_addr #3 {
  %3 = icmp slt i32 %0, 0
  br i1 %3, label %12, label %4

4:                                                ; preds = %2
  %5 = getelementptr inbounds i8, ptr %1, i64 8
  %6 = load i32, ptr %5, align 8
  %.not = icmp sgt i32 %6, %0
  br i1 %.not, label %7, label %12

7:                                                ; preds = %4
  %8 = getelementptr inbounds i8, ptr %1, i64 16
  %9 = load ptr, ptr %8, align 8
  %10 = zext nneg i32 %0 to i64
  %11 = getelementptr inbounds %struct.cmsCurveSegment, ptr %9, i64 %10
  br label %12

12:                                               ; preds = %2, %4, %7
  %.0 = phi ptr [ %11, %7 ], [ null, %4 ], [ null, %2 ]
  ret ptr %.0
}